target datalayout = "e-m:e-p270:32:32-p271:32:32-p272:64:64-i64:64-i128:128-f80:128-n8:16:32:64-S128"
target triple = "x86_64-pc-linux-gnu"

%struct.ident_t = type { i32, i32, i32, i32, ptr }
%struct.Qureg = type { i32, i32, i32, i64, i64, i32, i32, %struct.ComplexArray, %struct.ComplexArray, %struct.ComplexArray, ptr, ptr, ptr, ptr, ptr, ptr }
%struct.ComplexArray = type { ptr, ptr }

@3 = private unnamed_addr constant %struct.ident_t { i32 0, i32 2, i32 0, i32 22, ptr @0 }, align 8

; Function Attrs: nounwind uwtable
define void @statevec_multiControlledPhaseShift(ptr noundef byval(%struct.Qureg) align 8 %0, ptr noundef %1, i32 noundef %2, double noundef %3) #0 {
  %5 = alloca ptr, align 8
  %6 = alloca i32, align 4
  %7 = alloca double, align 8
  %8 = alloca i64, align 8
  %9 = alloca i64, align 8
  %10 = alloca i64, align 8
  %11 = alloca i64, align 8
  %12 = alloca ptr, align 8
  %13 = alloca ptr, align 8
  %14 = alloca double, align 8
  %15 = alloca double, align 8
  store ptr %1, ptr %5, align 8, !tbaa !19
  store i32 %2, ptr %6, align 4, !tbaa !8
  store double %3, ptr %7, align 8, !tbaa !10
  call void @llvm.lifetime.start.p0(i64 8, ptr %8) #3
  call void @llvm.lifetime.start.p0(i64 8, ptr %9) #3
  %16 = getelementptr inbounds nuw %struct.Qureg, ptr %0, i32 0, i32 3
  %17 = load i64, ptr %16, align 8, !tbaa !12
  store i64 %17, ptr %9, align 8, !tbaa !4
  call void @llvm.lifetime.start.p0(i64 8, ptr %10) #3
  %18 = getelementptr inbounds nuw %struct.Qureg, ptr %0, i32 0, i32 5
  %19 = load i32, ptr %18, align 8, !tbaa !26
  %20 = sext i32 %19 to i64
  store i64 %20, ptr %10, align 8, !tbaa !4
  call void @llvm.lifetime.start.p0(i64 8, ptr %11) #3
  %21 = load ptr, ptr %5, align 8, !tbaa !19
  %22 = load i32, ptr %6, align 4, !tbaa !8
  %23 = call i64 @getQubitBitMask(ptr noundef %21, i32 noundef %22)
  store i64 %23, ptr %11, align 8, !tbaa !4
  %24 = getelementptr inbounds nuw %struct.Qureg, ptr %0, i32 0, i32 3
  %25 = load i64, ptr %24, align 8, !tbaa !12
  store i64 %25, ptr %8, align 8, !tbaa !4
  call void @llvm.lifetime.start.p0(i64 8, ptr %12) #3
  %26 = getelementptr inbounds nuw %struct.Qureg, ptr %0, i32 0, i32 7
  %27 = getelementptr inbounds nuw %struct.ComplexArray, ptr %26, i32 0, i32 0
  %28 = load ptr, ptr %27, align 8, !tbaa !27
  store ptr %28, ptr %12, align 8, !tbaa !25
  call void @llvm.lifetime.start.p0(i64 8, ptr %13) #3
  %29 = getelementptr inbounds nuw %struct.Qureg, ptr %0, i32 0, i32 7
  %30 = getelementptr inbounds nuw %struct.ComplexArray, ptr %29, i32 0, i32 1
  %31 = load ptr, ptr %30, align 8, !tbaa !28
  store ptr %31, ptr %13, align 8, !tbaa !25
  call void @llvm.lifetime.start.p0(i64 8, ptr %14) #3
  %32 = load double, ptr %7, align 8, !tbaa !10
  %33 = call double @cos(double noundef %32) #3, !tbaa !8
  store double %33, ptr %14, align 8, !tbaa !10
  call void @llvm.lifetime.start.p0(i64 8, ptr %15) #3
  %34 = load double, ptr %7, align 8, !tbaa !10
  %35 = call double @sin(double noundef %34) #3, !tbaa !8
  store double %35, ptr %15, align 8, !tbaa !10
  call void (ptr, i32, ptr, ...) @__kmpc_fork_call(ptr @3, i32 8, ptr @statevec_multiControlledPhaseShift.omp_outlined, ptr %8, ptr %11, ptr %10, ptr %9, ptr %12, ptr %13, ptr %14, ptr %15)
  call void @llvm.lifetime.end.p0(i64 8, ptr %15) #3
  call void @llvm.lifetime.end.p0(i64 8, ptr %14) #3
  call void @llvm.lifetime.end.p0(i64 8, ptr %13) #3
  call void @llvm.lifetime.end.p0(i64 8, ptr %12) #3
  call void @llvm.lifetime.end.p0(i64 8, ptr %11) #3
  call void @llvm.lifetime.end.p0(i64 8, ptr %10) #3
  call void @llvm.lifetime.end.p0(i64 8, ptr %9) #3
  call void @llvm.lifetime.end.p0(i64 8, ptr %8) #3
  ret void
}